target datalayout = "e-m:e-p270:32:32-p271:32:32-p272:64:64-i64:64-i128:128-f80:128-n8:16:32:64-S128"
target triple = "x86_64-pc-linux-gnu"

%class.Register = type { i32 }
%class.MachNode = type { %class.Node.base, i8, i16, ptr }
%class.Node.base = type <{ ptr, ptr, ptr, i32, i32, i32, i32, i32, i32, i32 }>
%class.cmpLTMaskNode = type { %class.MachNode, [3 x ptr] }

@_ZL5noreg = internal constant %class.Register { i32 -1 }, align 4

; Function Attrs: mustprogress nounwind uwtable
define linkonce_odr hidden void @_ZN8RegisterC2Eib(ptr noundef nonnull align 4 dereferenceable(4) %0, i32 noundef %1, i1 noundef zeroext %2) unnamed_addr #1 comdat align 2 {
  %4 = alloca ptr, align 8
  %5 = alloca i32, align 4
  %6 = alloca i8, align 1
  store ptr %0, ptr %4, align 8
  store i32 %1, ptr %5, align 4
  %7 = zext i1 %2 to i8
  store i8 %7, ptr %6, align 1
  %8 = load ptr, ptr %4, align 8
  %9 = getelementptr inbounds %class.Register, ptr %8, i32 0, i32 0
  %10 = load i32, ptr %5, align 4
  store i32 %10, ptr %9, align 4
  ret void
}

; Function Attrs: mustprogress nounwind uwtable
define linkonce_odr hidden i32 @_Z11as_Registeri(i32 noundef %0) #1 comdat {
  %2 = alloca %class.Register, align 4
  %3 = alloca i32, align 4
  store i32 %0, ptr %3, align 4
  %4 = load i32, ptr %3, align 4
  %5 = icmp sle i32 0, %4
  br i1 %5, label %6, label %11

6:                                                ; preds = %1
  %7 = load i32, ptr %3, align 4
  %8 = icmp slt i32 %7, 32
  br i1 %8, label %9, label %11

9:                                                ; preds = %6
  %10 = load i32, ptr %3, align 4
  call void @_ZN8RegisterC2Eib(ptr noundef nonnull align 4 dereferenceable(4) %2, i32 noundef %10, i1 noundef zeroext false)
  br label %12

11:                                               ; preds = %6, %1
  call void @llvm.memcpy.p0.p0.i64(ptr align 4 %2, ptr align 4 @_ZL5noreg, i64 4, i1 false)
  br label %12

12:                                               ; preds = %11, %9
  %13 = getelementptr inbounds %class.Register, ptr %2, i32 0, i32 0
  %14 = load i32, ptr %13, align 4
  ret i32 %14
}

; Function Attrs: mustprogress nounwind uwtable
define linkonce_odr hidden i32 @_ZNK8MachOper11as_RegisterEP13PhaseRegAllocPK4Node(ptr noundef nonnull align 8 dereferenceable(8) %0, ptr noundef %1, ptr noundef %2) #1 comdat align 2 {
  %4 = alloca %class.Register, align 4
  %5 = alloca ptr, align 8
  %6 = alloca ptr, align 8
  %7 = alloca ptr, align 8
  store ptr %0, ptr %5, align 8
  store ptr %1, ptr %6, align 8
  store ptr %2, ptr %7, align 8
  %8 = load ptr, ptr %5, align 8
  %9 = load ptr, ptr %6, align 8
  %10 = load ptr, ptr %7, align 8
  %11 = load ptr, ptr %8, align 8
  %12 = getelementptr inbounds ptr, ptr %11, i64 4
  %13 = load ptr, ptr %12, align 8
  %14 = call noundef i32 %13(ptr noundef nonnull align 8 dereferenceable(8) %8, ptr noundef %9, ptr noundef %10)
  %15 = call i32 @_Z11as_Registeri(i32 noundef %14)
  %16 = getelementptr inbounds %class.Register, ptr %4, i32 0, i32 0
  store i32 %15, ptr %16, align 4
  %17 = getelementptr inbounds %class.Register, ptr %4, i32 0, i32 0
  %18 = load i32, ptr %17, align 4
  ret i32 %18
}

; Function Attrs: mustprogress nounwind uwtable
define linkonce_odr hidden i32 @_ZNK8MachOper11as_RegisterEP13PhaseRegAllocPK4Nodei(ptr noundef nonnull align 8 dereferenceable(8) %0, ptr noundef %1, ptr noundef %2, i32 noundef %3) #1 comdat align 2 {
  %5 = alloca %class.Register, align 4
  %6 = alloca ptr, align 8
  %7 = alloca ptr, align 8
  %8 = alloca ptr, align 8
  %9 = alloca i32, align 4
  store ptr %0, ptr %6, align 8
  store ptr %1, ptr %7, align 8
  store ptr %2, ptr %8, align 8
  store i32 %3, ptr %9, align 4
  %10 = load ptr, ptr %6, align 8
  %11 = load ptr, ptr %7, align 8
  %12 = load ptr, ptr %8, align 8
  %13 = load i32, ptr %9, align 4
  %14 = load ptr, ptr %10, align 8
  %15 = getelementptr inbounds ptr, ptr %14, i64 5
  %16 = load ptr, ptr %15, align 8
  %17 = call noundef i32 %16(ptr noundef nonnull align 8 dereferenceable(8) %10, ptr noundef %11, ptr noundef %12, i32 noundef %13)
  %18 = call i32 @_Z11as_Registeri(i32 noundef %17)
  %19 = getelementptr inbounds %class.Register, ptr %5, i32 0, i32 0
  store i32 %18, ptr %19, align 4
  %20 = getelementptr inbounds %class.Register, ptr %5, i32 0, i32 0
  %21 = load i32, ptr %20, align 4
  ret i32 %21
}

; Function Attrs: mustprogress nounwind uwtable
define linkonce_odr hidden noundef ptr @_ZNK13cmpLTMaskNode10opnd_arrayEj(ptr noundef nonnull align 8 dereferenceable(88) %0, i32 noundef %1) #1 comdat align 2 {
  %3 = alloca ptr, align 8
  %4 = alloca i32, align 4
  store ptr %0, ptr %3, align 8
  store i32 %1, ptr %4, align 4
  %5 = load ptr, ptr %3, align 8
  %6 = getelementptr inbounds %class.cmpLTMaskNode, ptr %5, i32 0, i32 1
  %7 = load i32, ptr %4, align 4
  %8 = zext i32 %7 to i64
  %9 = getelementptr inbounds [3 x ptr], ptr %6, i64 0, i64 %8
  %10 = load ptr, ptr %9, align 8
  ret ptr %10
}

; Function Attrs: mustprogress nounwind uwtable
define hidden void @_ZNK13cmpLTMaskNode4emitEP17C2_MacroAssemblerP13PhaseRegAlloc(ptr noundef nonnull align 8 dereferenceable(88) %0, ptr noundef %1, ptr noundef %2) unnamed_addr #1 align 2 {
  %4 = alloca ptr, align 8
  %5 = alloca ptr, align 8
  %6 = alloca ptr, align 8
  %7 = alloca i32, align 4
  %8 = alloca i32, align 4
  %9 = alloca i32, align 4
  %10 = alloca %class.Register, align 4
  %11 = alloca %class.Register, align 4
  %12 = alloca %class.Register, align 4
  %13 = alloca %class.Register, align 4
  %14 = alloca %class.Register, align 4
  %15 = alloca %class.Register, align 4
  store ptr %0, ptr %4, align 8
  store ptr %1, ptr %5, align 8
  store ptr %2, ptr %6, align 8
  %16 = load ptr, ptr %4, align 8
  store i32 1, ptr %7, align 4
  store i32 1, ptr %8, align 4
  %17 = load i32, ptr %8, align 4
  %18 = call noundef ptr @_ZNK13cmpLTMaskNode10opnd_arrayEj(ptr noundef nonnull align 8 dereferenceable(88) %16, i32 noundef 1)
  %19 = load ptr, ptr %18, align 8
  %20 = getelementptr inbounds ptr, ptr %19, i64 1
  %21 = load ptr, ptr %20, align 8
  %22 = call noundef i32 %21(ptr noundef nonnull align 8 dereferenceable(8) %18)
  %23 = add i32 %17, %22
  store i32 %23, ptr %9, align 4
  %24 = load ptr, ptr %5, align 8
  %25 = call noundef ptr @_ZNK13cmpLTMaskNode10opnd_arrayEj(ptr noundef nonnull align 8 dereferenceable(88) %16, i32 noundef 1)
  %26 = load ptr, ptr %6, align 8
  %27 = load i32, ptr %8, align 4
  %28 = call i32 @_ZNK8MachOper11as_RegisterEP13PhaseRegAllocPK4Nodei(ptr noundef nonnull align 8 dereferenceable(8) %25, ptr noundef %26, ptr noundef %16, i32 noundef %27)
  %29 = getelementptr inbounds %class.Register, ptr %10, i32 0, i32 0
  store i32 %28, ptr %29, align 4
  %30 = call noundef ptr @_ZNK13cmpLTMaskNode10opnd_arrayEj(ptr noundef nonnull align 8 dereferenceable(88) %16, i32 noundef 2)
  %31 = load ptr, ptr %6, align 8
  %32 = load i32, ptr %9, align 4
  %33 = call i32 @_ZNK8MachOper11as_RegisterEP13PhaseRegAllocPK4Nodei(ptr noundef nonnull align 8 dereferenceable(8) %30, ptr noundef %31, ptr noundef %16, i32 noundef %32)
  %34 = getelementptr inbounds %class.Register, ptr %11, i32 0, i32 0
  store i32 %33, ptr %34, align 4
  %35 = getelementptr inbounds %class.Register, ptr %10, i32 0, i32 0
  %36 = load i32, ptr %35, align 4
  %37 = getelementptr inbounds %class.Register, ptr %11, i32 0, i32 0
  %38 = load i32, ptr %37, align 4
  call void @_ZN9Assembler4cmplE8RegisterS0_(ptr noundef nonnull align 8 dereferenceable(40) %24, i32 %36, i32 %38)
  %39 = load ptr, ptr %5, align 8
  %40 = call noundef ptr @_ZNK13cmpLTMaskNode10opnd_arrayEj(ptr noundef nonnull align 8 dereferenceable(88) %16, i32 noundef 0)
  %41 = load ptr, ptr %6, align 8
  %42 = call i32 @_ZNK8MachOper11as_RegisterEP13PhaseRegAllocPK4Node(ptr noundef nonnull align 8 dereferenceable(8) %40, ptr noundef %41, ptr noundef %16)
  %43 = getelementptr inbounds %class.Register, ptr %12, i32 0, i32 0
  store i32 %42, ptr %43, align 4
  %44 = getelementptr inbounds %class.Register, ptr %12, i32 0, i32 0
  %45 = load i32, ptr %44, align 4
  call void @_ZN9Assembler4setbENS_9ConditionE8Register(ptr noundef nonnull align 8 dereferenceable(40) %39, i32 noundef 12, i32 %45)
  %46 = load ptr, ptr %5, align 8
  %47 = call noundef ptr @_ZNK13cmpLTMaskNode10opnd_arrayEj(ptr noundef nonnull align 8 dereferenceable(88) %16, i32 noundef 0)
  %48 = load ptr, ptr %6, align 8
  %49 = call i32 @_ZNK8MachOper11as_RegisterEP13PhaseRegAllocPK4Node(ptr noundef nonnull align 8 dereferenceable(8) %47, ptr noundef %48, ptr noundef %16)
  %50 = getelementptr inbounds %class.Register, ptr %13, i32 0, i32 0
  store i32 %49, ptr %50, align 4
  %51 = call noundef ptr @_ZNK13cmpLTMaskNode10opnd_arrayEj(ptr noundef nonnull align 8 dereferenceable(88) %16, i32 noundef 0)
  %52 = load ptr, ptr %6, align 8
  %53 = call i32 @_ZNK8MachOper11as_RegisterEP13PhaseRegAllocPK4Node(ptr noundef nonnull align 8 dereferenceable(8) %51, ptr noundef %52, ptr noundef %16)
  %54 = getelementptr inbounds %class.Register, ptr %14, i32 0, i32 0
  store i32 %53, ptr %54, align 4
  %55 = getelementptr inbounds %class.Register, ptr %13, i32 0, i32 0
  %56 = load i32, ptr %55, align 4
  %57 = getelementptr inbounds %class.Register, ptr %14, i32 0, i32 0
  %58 = load i32, ptr %57, align 4
  call void @_ZN9Assembler6movzblE8RegisterS0_(ptr noundef nonnull align 8 dereferenceable(40) %46, i32 %56, i32 %58)
  %59 = load ptr, ptr %5, align 8
  %60 = call noundef ptr @_ZNK13cmpLTMaskNode10opnd_arrayEj(ptr noundef nonnull align 8 dereferenceable(88) %16, i32 noundef 0)
  %61 = load ptr, ptr %6, align 8
  %62 = call i32 @_ZNK8MachOper11as_RegisterEP13PhaseRegAllocPK4Node(ptr noundef nonnull align 8 dereferenceable(8) %60, ptr noundef %61, ptr noundef %16)
  %63 = getelementptr inbounds %class.Register, ptr %15, i32 0, i32 0
  store i32 %62, ptr %63, align 4
  %64 = getelementptr inbounds %class.Register, ptr %15, i32 0, i32 0
  %65 = load i32, ptr %64, align 4
  call void @_ZN9Assembler4neglE8Register(ptr noundef nonnull align 8 dereferenceable(40) %59, i32 %65)
  ret void
}